target datalayout = "e-m:e-p270:32:32-p271:32:32-p272:64:64-i64:64-i128:128-f80:128-n8:16:32:64-S128"
target triple = "x86_64-pc-linux-gnu"

; Function Attrs: nounwind uwtable
define void @Abc_GenChaseNext(ptr noundef %0, ptr noundef %1, ptr noundef %2) #0 {
  %4 = alloca ptr, align 8
  %5 = alloca ptr, align 8
  %6 = alloca ptr, align 8
  %7 = alloca i32, align 4
  %8 = alloca i32, align 4
  %9 = alloca i32, align 4
  %10 = alloca i32, align 4
  %11 = alloca i32, align 4
  %12 = alloca i32, align 4
  store ptr %0, ptr %4, align 8, !tbaa !17
  store ptr %1, ptr %5, align 8, !tbaa !17
  store ptr %2, ptr %6, align 8, !tbaa !17
  call void @llvm.lifetime.start.p0(i64 4, ptr %7) #12
  store i32 0, ptr %7, align 4, !tbaa !8
  call void @llvm.lifetime.start.p0(i64 4, ptr %8) #12
  %13 = load ptr, ptr %6, align 8, !tbaa !17
  %14 = load i32, ptr %13, align 4, !tbaa !8
  store i32 %14, ptr %8, align 4, !tbaa !8
  br label %15

15:                                               ; preds = %116, %3
  %16 = load ptr, ptr %5, align 8, !tbaa !17
  %17 = load i32, ptr %8, align 4, !tbaa !8
  %18 = sext i32 %17 to i64
  %19 = getelementptr inbounds i32, ptr %16, i64 %18
  %20 = load i32, ptr %19, align 4, !tbaa !8
  %21 = icmp ne i32 %20, 0
  %22 = xor i1 %21, true
  br i1 %22, label %23, label %119

23:                                               ; preds = %15
  call void @llvm.lifetime.start.p0(i64 4, ptr %9) #12
  %24 = load ptr, ptr %4, align 8, !tbaa !17
  %25 = load i32, ptr %8, align 4, !tbaa !8
  %26 = sext i32 %25 to i64
  %27 = getelementptr inbounds i32, ptr %24, i64 %26
  %28 = load i32, ptr %27, align 4, !tbaa !8
  %29 = add nsw i32 %28, 1
  store i32 %29, ptr %9, align 4, !tbaa !8
  call void @llvm.lifetime.start.p0(i64 4, ptr %10) #12
  %30 = load ptr, ptr %4, align 8, !tbaa !17
  %31 = load i32, ptr %8, align 4, !tbaa !8
  %32 = add nsw i32 %31, 1
  %33 = sext i32 %32 to i64
  %34 = getelementptr inbounds i32, ptr %30, i64 %33
  %35 = load i32, ptr %34, align 4, !tbaa !8
  store i32 %35, ptr %10, align 4, !tbaa !8
  %36 = load i32, ptr %9, align 4, !tbaa !8
  %37 = load ptr, ptr %5, align 8, !tbaa !17
  %38 = load i32, ptr %8, align 4, !tbaa !8
  %39 = add nsw i32 %38, 1
  %40 = sext i32 %39 to i64
  %41 = getelementptr inbounds i32, ptr %37, i64 %40
  %42 = load i32, ptr %41, align 4, !tbaa !8
  %43 = icmp ne i32 %42, 0
  br i1 %43, label %44, label %50

44:                                               ; preds = %23
  %45 = load i32, ptr %10, align 4, !tbaa !8
  %46 = load i32, ptr %10, align 4, !tbaa !8
  %47 = and i32 %46, 1
  %48 = sub nsw i32 2, %47
  %49 = sub nsw i32 %45, %48
  br label %52

50:                                               ; preds = %23
  %51 = load i32, ptr %10, align 4, !tbaa !8
  br label %52

52:                                               ; preds = %50, %44
  %53 = phi i32 [ %49, %44 ], [ %51, %50 ]
  %54 = icmp slt i32 %36, %53
  br i1 %54, label %55, label %86

55:                                               ; preds = %52
  %56 = load i32, ptr %9, align 4, !tbaa !8
  %57 = and i32 %56, 1
  %58 = icmp eq i32 %57, 0
  br i1 %58, label %59, label %67

59:                                               ; preds = %55
  %60 = load i32, ptr %9, align 4, !tbaa !8
  %61 = add nsw i32 %60, 1
  %62 = load i32, ptr %10, align 4, !tbaa !8
  %63 = icmp slt i32 %61, %62
  br i1 %63, label %64, label %67

64:                                               ; preds = %59
  %65 = load i32, ptr %9, align 4, !tbaa !8
  %66 = add nsw i32 %65, 1
  store i32 %66, ptr %9, align 4, !tbaa !8
  br label %67

67:                                               ; preds = %64, %59, %55
  %68 = load i32, ptr %9, align 4, !tbaa !8
  %69 = load ptr, ptr %4, align 8, !tbaa !17
  %70 = load i32, ptr %8, align 4, !tbaa !8
  %71 = sext i32 %70 to i64
  %72 = getelementptr inbounds i32, ptr %69, i64 %71
  store i32 %68, ptr %72, align 4, !tbaa !8
  %73 = load i32, ptr %7, align 4, !tbaa !8
  %74 = icmp ne i32 %73, 0
  br i1 %74, label %85, label %75

75:                                               ; preds = %67
  %76 = load i32, ptr %8, align 4, !tbaa !8
  %77 = icmp sgt i32 %76, 1
  br i1 %77, label %78, label %81

78:                                               ; preds = %75
  %79 = load i32, ptr %8, align 4, !tbaa !8
  %80 = sub nsw i32 %79, 1
  br label %82

81:                                               ; preds = %75
  br label %82

82:                                               ; preds = %81, %78
  %83 = phi i32 [ %80, %78 ], [ 0, %81 ]
  %84 = load ptr, ptr %6, align 8, !tbaa !17
  store i32 %83, ptr %84, align 4, !tbaa !8
  br label %85

85:                                               ; preds = %82, %67
  store i32 1, ptr %11, align 4
  br label %113

86:                                               ; preds = %52
  %87 = load ptr, ptr %4, align 8, !tbaa !17
  %88 = load i32, ptr %8, align 4, !tbaa !8
  %89 = sext i32 %88 to i64
  %90 = getelementptr inbounds i32, ptr %87, i64 %89
  %91 = load i32, ptr %90, align 4, !tbaa !8
  %92 = sub nsw i32 %91, 1
  %93 = load i32, ptr %8, align 4, !tbaa !8
  %94 = icmp sge i32 %92, %93
  %95 = zext i1 %94 to i32
  %96 = load ptr, ptr %5, align 8, !tbaa !17
  %97 = load i32, ptr %8, align 4, !tbaa !8
  %98 = sext i32 %97 to i64
  %99 = getelementptr inbounds i32, ptr %96, i64 %98
  store i32 %95, ptr %99, align 4, !tbaa !8
  %100 = load ptr, ptr %5, align 8, !tbaa !17
  %101 = load i32, ptr %8, align 4, !tbaa !8
  %102 = sext i32 %101 to i64
  %103 = getelementptr inbounds i32, ptr %100, i64 %102
  %104 = load i32, ptr %103, align 4, !tbaa !8
  %105 = icmp ne i32 %104, 0
  br i1 %105, label %106, label %112

106:                                              ; preds = %86
  %107 = load i32, ptr %7, align 4, !tbaa !8
  %108 = icmp ne i32 %107, 0
  br i1 %108, label %112, label %109

109:                                              ; preds = %106
  %110 = load i32, ptr %8, align 4, !tbaa !8
  %111 = load ptr, ptr %6, align 8, !tbaa !17
  store i32 %110, ptr %111, align 4, !tbaa !8
  store i32 1, ptr %7, align 4, !tbaa !8
  br label %112

112:                                              ; preds = %109, %106, %86
  store i32 0, ptr %11, align 4
  br label %113

113:                                              ; preds = %112, %85
  call void @llvm.lifetime.end.p0(i64 4, ptr %10) #12
  call void @llvm.lifetime.end.p0(i64 4, ptr %9) #12
  %114 = load i32, ptr %11, align 4
  switch i32 %114, label %158 [
    i32 0, label %115
  ]

115:                                              ; preds = %113
  br label %116

116:                                              ; preds = %115
  %117 = load i32, ptr %8, align 4, !tbaa !8
  %118 = add nsw i32 %117, 1
  store i32 %118, ptr %8, align 4, !tbaa !8
  br label %15, !llvm.loop !76

119:                                              ; preds = %15
  call void @llvm.lifetime.start.p0(i64 4, ptr %12) #12
  %120 = load ptr, ptr %4, align 8, !tbaa !17
  %121 = load i32, ptr %8, align 4, !tbaa !8
  %122 = sext i32 %121 to i64
  %123 = getelementptr inbounds i32, ptr %120, i64 %122
  %124 = load i32, ptr %123, align 4, !tbaa !8
  %125 = sub nsw i32 %124, 1
  store i32 %125, ptr %12, align 4, !tbaa !8
  %126 = load i32, ptr %12, align 4, !tbaa !8
  %127 = and i32 %126, 1
  %128 = icmp ne i32 %127, 0
  br i1 %128, label %129, label %137

129:                                              ; preds = %119
  %130 = load i32, ptr %12, align 4, !tbaa !8
  %131 = sub nsw i32 %130, 1
  %132 = load i32, ptr %8, align 4, !tbaa !8
  %133 = icmp sge i32 %131, %132
  br i1 %133, label %134, label %137

134:                                              ; preds = %129
  %135 = load i32, ptr %12, align 4, !tbaa !8
  %136 = add nsw i32 %135, -1
  store i32 %136, ptr %12, align 4, !tbaa !8
  br label %137

137:                                              ; preds = %134, %129, %119
  %138 = load i32, ptr %12, align 4, !tbaa !8
  %139 = load ptr, ptr %4, align 8, !tbaa !17
  %140 = load i32, ptr %8, align 4, !tbaa !8
  %141 = sext i32 %140 to i64
  %142 = getelementptr inbounds i32, ptr %139, i64 %141
  store i32 %138, ptr %142, align 4, !tbaa !8
  %143 = load i32, ptr %12, align 4, !tbaa !8
  %144 = sub nsw i32 %143, 1
  %145 = load i32, ptr %8, align 4, !tbaa !8
  %146 = icmp sge i32 %144, %145
  %147 = zext i1 %146 to i32
  %148 = load ptr, ptr %5, align 8, !tbaa !17
  %149 = load i32, ptr %8, align 4, !tbaa !8
  %150 = sext i32 %149 to i64
  %151 = getelementptr inbounds i32, ptr %148, i64 %150
  store i32 %147, ptr %151, align 4, !tbaa !8
  %152 = load i32, ptr %7, align 4, !tbaa !8
  %153 = icmp ne i32 %152, 0
  br i1 %153, label %157, label %154

154:                                              ; preds = %137
  %155 = load i32, ptr %8, align 4, !tbaa !8
  %156 = load ptr, ptr %6, align 8, !tbaa !17
  store i32 %155, ptr %156, align 4, !tbaa !8
  br label %157

157:                                              ; preds = %154, %137
  call void @llvm.lifetime.end.p0(i64 4, ptr %12) #12
  store i32 0, ptr %11, align 4
  br label %158

158:                                              ; preds = %157, %113
  call void @llvm.lifetime.end.p0(i64 4, ptr %8) #12
  call void @llvm.lifetime.end.p0(i64 4, ptr %7) #12
  %159 = load i32, ptr %11, align 4
  switch i32 %159, label %161 [
    i32 0, label %160
    i32 1, label %160
  ]

160:                                              ; preds = %158, %158
  ret void

161:                                              ; preds = %158
  unreachable
}