; Function Attrs: nofree norecurse nosync nounwind memory(argmem: readwrite) uwtable
define void @Abc_GenChaseNext(ptr noundef captures(none) %0, ptr noundef captures(none) %1, ptr noundef captures(none) %2) local_unnamed_addr #4 {
  %4 = load i32, ptr %2, align 4, !tbaa !7
  %5 = sext i32 %4 to i64
  %6 = getelementptr inbounds i32, ptr %1, i64 %5
  %7 = load i32, ptr %6, align 4, !tbaa !7
  %.not77 = icmp eq i32 %7, 0
  br i1 %.not77, label %.lr.ph, label %._crit_edge

.lr.ph:                                           ; preds = %3, %34
  %indvars.iv = phi i64 [ %indvars.iv.next, %34 ], [ %5, %3 ]
  %8 = phi ptr [ %14, %34 ], [ %6, %3 ]
  %.05379 = phi i32 [ %.1, %34 ], [ 0, %3 ]
  %9 = getelementptr inbounds i32, ptr %0, i64 %indvars.iv
  %10 = load i32, ptr %9, align 4, !tbaa !7
  %11 = add nsw i32 %10, 1
  %indvars.iv.next = add nsw i64 %indvars.iv, 1
  %12 = getelementptr inbounds i32, ptr %0, i64 %indvars.iv.next
  %13 = load i32, ptr %12, align 4, !tbaa !7
  %14 = getelementptr inbounds i32, ptr %1, i64 %indvars.iv.next
  %15 = load i32, ptr %14, align 4, !tbaa !7
  %.not61 = icmp eq i32 %15, 0
  %.neg = or i32 %13, -2
  %16 = select i1 %.not61, i32 0, i32 %.neg
  %17 = add i32 %16, %13
  %.not65 = icmp slt i32 %11, %17
  br i1 %.not65, label %18, label %27

18:                                               ; preds = %.lr.ph
  %19 = getelementptr inbounds i32, ptr %0, i64 %indvars.iv
  %20 = and i32 %10, 1
  %.not63 = icmp eq i32 %20, 0
  %21 = add nsw i32 %10, 2
  %22 = icmp slt i32 %21, %13
  %spec.select = select i1 %22, i32 %21, i32 %11
  %.054 = select i1 %.not63, i32 %11, i32 %spec.select
  store i32 %.054, ptr %19, align 4, !tbaa !7
  %.not64 = icmp eq i32 %.05379, 0
  br i1 %.not64, label %23, label %.thread

23:                                               ; preds = %18
  %24 = trunc nsw i64 %indvars.iv to i32
  %25 = tail call i32 @llvm.smax.i32(i32 %24, i32 1)
  %26 = add nsw i32 %25, -1
  br label %.thread.sink.split

27:                                               ; preds = %.lr.ph
  %28 = sext i32 %10 to i64
  %29 = icmp slt i64 %indvars.iv, %28
  %30 = zext i1 %29 to i32
  store i32 %30, ptr %8, align 4, !tbaa !7
  %31 = icmp eq i32 %.05379, 0
  %or.cond.not = select i1 %29, i1 %31, i1 false
  br i1 %or.cond.not, label %32, label %34

32:                                               ; preds = %27
  %33 = trunc nsw i64 %indvars.iv to i32
  store i32 %33, ptr %2, align 4, !tbaa !7
  br label %34

34:                                               ; preds = %27, %32
  %.1 = phi i32 [ %.05379, %27 ], [ 1, %32 ]
  %35 = load i32, ptr %14, align 4, !tbaa !7
  %.not = icmp eq i32 %35, 0
  br i1 %.not, label %.lr.ph, label %._crit_edge.loopexit

._crit_edge.loopexit:                             ; preds = %34
  %36 = trunc nsw i64 %indvars.iv.next to i32
  %37 = icmp eq i32 %.1, 0
  br label %._crit_edge

._crit_edge:                                      ; preds = %._crit_edge.loopexit, %3
  %.055.lcssa = phi i32 [ %4, %3 ], [ %36, %._crit_edge.loopexit ]
  %.053.lcssa = phi i1 [ true, %3 ], [ %37, %._crit_edge.loopexit ]
  %.lcssa68 = phi i64 [ %5, %3 ], [ %indvars.iv.next, %._crit_edge.loopexit ]
  %.lcssa = phi ptr [ %6, %3 ], [ %14, %._crit_edge.loopexit ]
  %38 = getelementptr inbounds i32, ptr %0, i64 %.lcssa68
  %39 = load i32, ptr %38, align 4, !tbaa !7
  %40 = add nsw i32 %39, -1
  %41 = and i32 %40, 1
  %.not58 = icmp eq i32 %41, 0
  %42 = add nsw i32 %39, -2
  %.not59 = icmp slt i32 %42, %.055.lcssa
  %or.cond = select i1 %.not58, i1 true, i1 %.not59
  %.0 = select i1 %or.cond, i32 %40, i32 %42
  store i32 %.0, ptr %38, align 4, !tbaa !7
  %43 = icmp sgt i32 %.0, %.055.lcssa
  %44 = zext i1 %43 to i32
  store i32 %44, ptr %.lcssa, align 4, !tbaa !7
  br i1 %.053.lcssa, label %.thread.sink.split, label %.thread

.thread.sink.split:                               ; preds = %._crit_edge, %23
  %.sink = phi i32 [ %26, %23 ], [ %.055.lcssa, %._crit_edge ]
  store i32 %.sink, ptr %2, align 4, !tbaa !7
  br label %.thread

.thread:                                          ; preds = %.thread.sink.split, %18, %._crit_edge
  ret void
}